; Function Attrs: nounwind uwtable
define i32 @EVP_PKEY_CTX_set_dh_paramgen_subprime_len(ptr noundef %0, i32 noundef %1) local_unnamed_addr #0 {
  %3 = alloca [2 x %struct.ossl_param_st], align 16
  %4 = alloca i64, align 8
  %5 = alloca %struct.ossl_param_st, align 8
  call void @llvm.lifetime.start.p0(i64 80, ptr nonnull %3) #4
  call void @llvm.lifetime.start.p0(i64 8, ptr nonnull %4) #4
  %6 = sext i32 %1 to i64
  store i64 %6, ptr %4, align 8, !tbaa !27
  %7 = icmp eq ptr %0, null
  br i1 %7, label %11, label %8

8:                                                ; preds = %2
  %9 = load i32, ptr %0, align 8, !tbaa !7
  %10 = and i32 %9, 6
  %.not.i = icmp eq i32 %10, 0
  br i1 %.not.i, label %11, label %12

11:                                               ; preds = %8, %2
  tail call void @ERR_new() #4
  tail call void @ERR_set_debug(ptr noundef nonnull @.str.5, i32 noundef 22, ptr noundef nonnull @__func__.dh_paramgen_check) #4
  tail call void (i32, i32, ptr, ...) @ERR_set_error(i32 noundef 6, i32 noundef 147, ptr noundef null) #4
  br label %dh_paramgen_check.exit.thread

12:                                               ; preds = %8
  %13 = getelementptr inbounds nuw i8, ptr %0, i64 32
  %14 = load ptr, ptr %13, align 8, !tbaa !20
  %15 = icmp eq ptr %14, null
  br i1 %15, label %16, label %dh_paramgen_check.exit

16:                                               ; preds = %12
  %17 = getelementptr inbounds nuw i8, ptr %0, i64 120
  %18 = load ptr, ptr %17, align 8, !tbaa !21
  %19 = load i32, ptr %18, align 8, !tbaa !22
  switch i32 %19, label %dh_paramgen_check.exit.thread [
    i32 920, label %dh_paramgen_check.exit
    i32 28, label %dh_paramgen_check.exit
  ]

dh_paramgen_check.exit:                           ; preds = %16, %16, %12
  %20 = getelementptr inbounds nuw i8, ptr %3, i64 40
  call void @OSSL_PARAM_construct_size_t(ptr dead_on_unwind nonnull writable sret(%struct.ossl_param_st) align 8 %3, ptr noundef nonnull @.str.3, ptr noundef nonnull %4) #4
  call void @llvm.lifetime.start.p0(i64 40, ptr nonnull %5) #4
  call void @OSSL_PARAM_construct_end(ptr dead_on_unwind nonnull writable sret(%struct.ossl_param_st) align 8 %5) #4
  call void @llvm.memcpy.p0.p0.i64(ptr noundef nonnull align 8 dereferenceable(40) %20, ptr noundef nonnull align 8 dereferenceable(40) %5, i64 40, i1 false), !tbaa.struct !24
  call void @llvm.lifetime.end.p0(i64 40, ptr nonnull %5) #4
  %21 = call i32 @evp_pkey_ctx_set_params_strict(ptr noundef nonnull %0, ptr noundef nonnull %3) #4
  br label %dh_paramgen_check.exit.thread

dh_paramgen_check.exit.thread:                    ; preds = %16, %11, %dh_paramgen_check.exit
  %.0 = phi i32 [ %21, %dh_paramgen_check.exit ], [ -1, %16 ], [ -2, %11 ]
  call void @llvm.lifetime.end.p0(i64 8, ptr nonnull %4) #4
  call void @llvm.lifetime.end.p0(i64 80, ptr nonnull %3) #4
  ret i32 %.0
}